; Function Attrs: mustprogress null_pointer_is_valid sspstrong uwtable
define void @_ZN18Iax2AnalysisDialog11savePayloadEP14QTemporaryFileP12_packet_infoPK12_iax2_info_t(ptr noundef align 8 captures(none) dereferenceable_or_null(10448) %0, ptr noundef %1, ptr noundef readonly captures(none) %2, ptr noundef readonly captures(none) %3) local_unnamed_addr #0 align 2 {
  %5 = alloca %class.QString, align 8
  %6 = alloca %class.QString, align 8
  %7 = tail call noundef zeroext i1 @_ZNK9QIODevice6isOpenEv(ptr noundef align 8 dereferenceable_or_null(16) %1)
  br i1 %7, label %8, label %65

8:                                                ; preds = %4
  %9 = tail call noundef i32 @_ZNK11QFileDevice5errorEv(ptr noundef align 8 dereferenceable_or_null(16) %1)
  %.not = icmp eq i32 %9, 0
  br i1 %.not, label %10, label %65

10:                                               ; preds = %8
  %11 = getelementptr inbounds nuw i8, ptr %2, i64 80
  %12 = load ptr, ptr %11, align 8
  %13 = getelementptr inbounds nuw i8, ptr %12, i64 8
  %14 = load i32, ptr %13, align 8
  %15 = getelementptr inbounds nuw i8, ptr %12, i64 12
  %16 = load i32, ptr %15, align 4
  %.not13 = icmp eq i32 %14, %16
  br i1 %.not13, label %36, label %17

17:                                               ; preds = %10
  %18 = load ptr, ptr %1, align 8
  %19 = getelementptr inbounds nuw i8, ptr %18, i64 112
  %20 = load ptr, ptr %19, align 8
  tail call void %20(ptr noundef align 8 dereferenceable_or_null(16) %1)
  call void @llvm.lifetime.start.p0(i64 24, ptr nonnull %5) #22
  call void @_ZNK11QMetaObject2trEPKcS1_i(ptr dead_on_unwind nonnull writable sret(%class.QString) align 8 %5, ptr noundef nonnull align 8 dereferenceable_or_null(56) @_ZN18Iax2AnalysisDialog16staticMetaObjectE, ptr noundef nonnull @.str.25, ptr noundef null, i32 noundef -1)
  %21 = getelementptr inbounds nuw i8, ptr %0, i64 10336
  %22 = load ptr, ptr %21, align 8
  %23 = load ptr, ptr %5, align 8
  store ptr %23, ptr %21, align 8
  store ptr %22, ptr %5, align 8
  %24 = getelementptr inbounds nuw i8, ptr %0, i64 10344
  %25 = getelementptr inbounds nuw i8, ptr %5, i64 8
  %26 = load ptr, ptr %24, align 8
  %27 = load ptr, ptr %25, align 8
  store ptr %27, ptr %24, align 8
  store ptr %26, ptr %25, align 8
  %28 = getelementptr inbounds nuw i8, ptr %0, i64 10352
  %29 = getelementptr inbounds nuw i8, ptr %5, i64 16
  %30 = load i64, ptr %28, align 8
  %31 = load i64, ptr %29, align 8
  store i64 %31, ptr %28, align 8
  store i64 %30, ptr %29, align 8
  %.not.i.i.i = icmp eq ptr %22, null
  br i1 %.not.i.i.i, label %_ZN7QStringD2Ev.exit, label %_ZN17QArrayDataPointerIDsE5derefEv.exit.i.i

_ZN17QArrayDataPointerIDsE5derefEv.exit.i.i:      ; preds = %17
  %32 = atomicrmw sub ptr %22, i32 1 seq_cst, align 4
  %.not.i.i = icmp eq i32 %32, 1
  br i1 %.not.i.i, label %33, label %_ZN7QStringD2Ev.exit

33:                                               ; preds = %_ZN17QArrayDataPointerIDsE5derefEv.exit.i.i
  %34 = load ptr, ptr %5, align 8
  call void @_ZN10QArrayData10deallocateEPS_xx(ptr noundef %34, i64 noundef 2, i64 noundef 8) #22
  br label %_ZN7QStringD2Ev.exit

_ZN7QStringD2Ev.exit:                             ; preds = %17, %_ZN17QArrayDataPointerIDsE5derefEv.exit.i.i, %33
  call void @llvm.lifetime.end.p0(i64 24, ptr nonnull %5) #22
  %35 = getelementptr inbounds nuw i8, ptr %0, i64 10360
  store i32 2, ptr %35, align 8
  br label %65

36:                                               ; preds = %10
  %37 = getelementptr inbounds nuw i8, ptr %3, i64 16
  %38 = load i32, ptr %37, align 8
  %.not14 = icmp eq i32 %38, 0
  br i1 %.not14, label %65, label %39

39:                                               ; preds = %36
  %40 = getelementptr inbounds nuw i8, ptr %3, i64 48
  %41 = load ptr, ptr %40, align 8
  %42 = zext i32 %38 to i64
  %43 = tail call noundef i64 @_ZN9QIODevice5writeEPKcx(ptr noundef align 8 dereferenceable_or_null(16) %1, ptr noundef %41, i64 noundef %42)
  %44 = load i32, ptr %37, align 8
  %45 = zext i32 %44 to i64
  %.not15 = icmp eq i64 %43, %45
  br i1 %.not15, label %65, label %46

46:                                               ; preds = %39
  call void @llvm.lifetime.start.p0(i64 24, ptr nonnull %6) #22
  call void @_ZNK11QMetaObject2trEPKcS1_i(ptr dead_on_unwind nonnull writable sret(%class.QString) align 8 %6, ptr noundef nonnull align 8 dereferenceable_or_null(56) @_ZN18Iax2AnalysisDialog16staticMetaObjectE, ptr noundef nonnull @.str.26, ptr noundef null, i32 noundef -1)
  %47 = getelementptr inbounds nuw i8, ptr %0, i64 10336
  %48 = load ptr, ptr %47, align 8
  %49 = load ptr, ptr %6, align 8
  store ptr %49, ptr %47, align 8
  store ptr %48, ptr %6, align 8
  %50 = getelementptr inbounds nuw i8, ptr %0, i64 10344
  %51 = getelementptr inbounds nuw i8, ptr %6, i64 8
  %52 = load ptr, ptr %50, align 8
  %53 = load ptr, ptr %51, align 8
  store ptr %53, ptr %50, align 8
  store ptr %52, ptr %51, align 8
  %54 = getelementptr inbounds nuw i8, ptr %0, i64 10352
  %55 = getelementptr inbounds nuw i8, ptr %6, i64 16
  %56 = load i64, ptr %54, align 8
  %57 = load i64, ptr %55, align 8
  store i64 %57, ptr %54, align 8
  store i64 %56, ptr %55, align 8
  %.not.i.i.i16 = icmp eq ptr %48, null
  br i1 %.not.i.i.i16, label %_ZN7QStringD2Ev.exit19, label %_ZN17QArrayDataPointerIDsE5derefEv.exit.i.i17

_ZN17QArrayDataPointerIDsE5derefEv.exit.i.i17:    ; preds = %46
  %58 = atomicrmw sub ptr %48, i32 1 seq_cst, align 4
  %.not.i.i18 = icmp eq i32 %58, 1
  br i1 %.not.i.i18, label %59, label %_ZN7QStringD2Ev.exit19

59:                                               ; preds = %_ZN17QArrayDataPointerIDsE5derefEv.exit.i.i17
  %60 = load ptr, ptr %6, align 8
  call void @_ZN10QArrayData10deallocateEPS_xx(ptr noundef %60, i64 noundef 2, i64 noundef 8) #22
  br label %_ZN7QStringD2Ev.exit19

_ZN7QStringD2Ev.exit19:                           ; preds = %46, %_ZN17QArrayDataPointerIDsE5derefEv.exit.i.i17, %59
  call void @llvm.lifetime.end.p0(i64 24, ptr nonnull %6) #22
  %61 = getelementptr inbounds nuw i8, ptr %0, i64 10360
  store i32 3, ptr %61, align 8
  %62 = load ptr, ptr %1, align 8
  %63 = getelementptr inbounds nuw i8, ptr %62, i64 112
  %64 = load ptr, ptr %63, align 8
  call void %64(ptr noundef align 8 dereferenceable_or_null(16) %1)
  br label %65

65:                                               ; preds = %_ZN7QStringD2Ev.exit19, %39, %36, %4, %8, %_ZN7QStringD2Ev.exit
  ret void
}